target datalayout = "e-m:e-p270:32:32-p271:32:32-p272:64:64-i64:64-i128:128-f80:128-n8:16:32:64-S128"
target triple = "x86_64-pc-linux-gnu"

%"class.duckdb::BaseStatistics" = type { %"struct.duckdb::LogicalType", i8, i8, i64, %union.anon, %"class.duckdb::unique_ptr" }
%"struct.duckdb::LogicalType" = type { i8, i8, %"class.duckdb::shared_ptr" }
%"class.duckdb::shared_ptr" = type { %"class.std::shared_ptr" }
%"class.std::shared_ptr" = type { %"class.std::__shared_ptr" }
%"class.std::__shared_ptr" = type { ptr, %"class.std::__shared_count" }
%"class.std::__shared_count" = type { ptr }
%union.anon = type { %"struct.duckdb::NumericStatsData" }
%"struct.duckdb::NumericStatsData" = type { i8, i8, %"struct.duckdb::NumericValueUnion", %"struct.duckdb::NumericValueUnion" }
%"struct.duckdb::NumericValueUnion" = type { %"union.duckdb::NumericValueUnion::Val" }
%"union.duckdb::NumericValueUnion::Val" = type { %"struct.duckdb::hugeint_t" }
%"struct.duckdb::hugeint_t" = type { i64, i64 }
%"class.duckdb::unique_ptr" = type { %"class.std::unique_ptr" }
%"class.std::unique_ptr" = type { %"struct.std::__uniq_ptr_data" }
%"struct.std::__uniq_ptr_data" = type { %"class.std::__uniq_ptr_impl" }
%"class.std::__uniq_ptr_impl" = type { %"class.std::tuple" }
%"class.std::tuple" = type { %"struct.std::_Tuple_impl" }
%"struct.std::_Tuple_impl" = type { %"struct.std::_Head_base.1" }
%"struct.std::_Head_base.1" = type { ptr }
%class.anon.116 = type { ptr }
%"class.duckdb::Serializer::List" = type { ptr }

@.str.18 = private unnamed_addr constant [12 x i8] c"child_stats\00", align 1

; Function Attrs: mustprogress uwtable
define linkonce_odr void @_ZN6duckdb10Serializer10WriteValueINS_14BaseStatisticsEEENSt9enable_ifIXsr13has_serializeIT_EE5valueEvE4typeERKS4_(ptr noundef nonnull align 8 dereferenceable(680) %0, ptr noundef nonnull align 8 dereferenceable(88) %1) #4 comdat align 2 {
  %3 = alloca ptr, align 8
  %4 = alloca ptr, align 8
  store ptr %0, ptr %3, align 8, !tbaa !78
  store ptr %1, ptr %4, align 8, !tbaa !3
  %5 = load ptr, ptr %3, align 8
  %6 = load ptr, ptr %5, align 8, !tbaa !86
  %7 = getelementptr inbounds ptr, ptr %6, i64 6
  %8 = load ptr, ptr %7, align 8
  call void %8(ptr noundef nonnull align 8 dereferenceable(680) %5)
  %9 = load ptr, ptr %4, align 8, !tbaa !3
  call void @_ZNK6duckdb14BaseStatistics9SerializeERNS_10SerializerE(ptr noundef nonnull align 8 dereferenceable(88) %9, ptr noundef nonnull align 8 dereferenceable(680) %5)
  %10 = load ptr, ptr %5, align 8, !tbaa !86
  %11 = getelementptr inbounds ptr, ptr %10, i64 7
  %12 = load ptr, ptr %11, align 8
  call void %12(ptr noundef nonnull align 8 dereferenceable(680) %5)
  ret void
}

; Function Attrs: mustprogress uwtable
define linkonce_odr void @_ZN6duckdb10Serializer4List12WriteElementINS_14BaseStatisticsEEEvRKT_(ptr noundef nonnull align 8 dereferenceable(8) %0, ptr noundef nonnull align 8 dereferenceable(88) %1) #4 comdat align 2 {
  %3 = alloca ptr, align 8
  %4 = alloca ptr, align 8
  store ptr %0, ptr %3, align 8, !tbaa !621
  store ptr %1, ptr %4, align 8, !tbaa !3
  %5 = load ptr, ptr %3, align 8
  %6 = getelementptr inbounds nuw %"class.duckdb::Serializer::List", ptr %5, i32 0, i32 0
  %7 = load ptr, ptr %6, align 8, !tbaa !625
  %8 = load ptr, ptr %4, align 8, !tbaa !3
  call void @_ZN6duckdb10Serializer10WriteValueINS_14BaseStatisticsEEENSt9enable_ifIXsr13has_serializeIT_EE5valueEvE4typeERKS4_(ptr noundef nonnull align 8 dereferenceable(680) %7, ptr noundef nonnull align 8 dereferenceable(88) %8)
  ret void
}

; Function Attrs: inlinehint mustprogress uwtable
define internal void @"_ZZN6duckdb11StructStats9SerializeERKNS_14BaseStatisticsERNS_10SerializerEENK3$_0clERNS4_4ListEm"(ptr noundef nonnull align 8 dereferenceable(8) %0, ptr noundef nonnull align 8 dereferenceable(8) %1, i64 noundef %2) #12 align 2 {
  %4 = alloca ptr, align 8
  %5 = alloca ptr, align 8
  %6 = alloca i64, align 8
  store ptr %0, ptr %4, align 8, !tbaa !95
  store ptr %1, ptr %5, align 8, !tbaa !621
  store i64 %2, ptr %6, align 8, !tbaa !40
  %7 = load ptr, ptr %4, align 8
  %8 = load ptr, ptr %5, align 8, !tbaa !621
  %9 = getelementptr inbounds nuw %class.anon.116, ptr %7, i32 0, i32 0
  %10 = load ptr, ptr %9, align 8, !tbaa !623
  %11 = load ptr, ptr %10, align 8, !tbaa !3
  %12 = load i64, ptr %6, align 8, !tbaa !40
  %13 = getelementptr inbounds nuw %"class.duckdb::BaseStatistics", ptr %11, i64 %12
  call void @_ZN6duckdb10Serializer4List12WriteElementINS_14BaseStatisticsEEEvRKT_(ptr noundef nonnull align 8 dereferenceable(8) %8, ptr noundef nonnull align 8 dereferenceable(88) %13)
  ret void
}

; Function Attrs: mustprogress nounwind uwtable
define linkonce_odr void @_ZN6duckdb10Serializer4ListC2ERS0_(ptr noundef nonnull align 8 dereferenceable(8) %0, ptr noundef nonnull align 8 dereferenceable(680) %1) unnamed_addr #6 comdat align 2 {
  %3 = alloca ptr, align 8
  %4 = alloca ptr, align 8
  store ptr %0, ptr %3, align 8, !tbaa !621
  store ptr %1, ptr %4, align 8, !tbaa !78
  %5 = load ptr, ptr %3, align 8
  %6 = getelementptr inbounds nuw %"class.duckdb::Serializer::List", ptr %5, i32 0, i32 0
  %7 = load ptr, ptr %4, align 8, !tbaa !78
  store ptr %7, ptr %6, align 8, !tbaa !78
  ret void
}

; Function Attrs: mustprogress uwtable
define internal void @"_ZN6duckdb10Serializer9WriteListIZNS_11StructStats9SerializeERKNS_14BaseStatisticsERS0_E3$_0EEvtPKcmT_"(ptr noundef nonnull align 8 dereferenceable(680) %0, i16 noundef zeroext %1, ptr noundef %2, i64 noundef %3, ptr %4) #4 align 2 {
  %6 = alloca %class.anon.116, align 8
  %7 = alloca ptr, align 8
  %8 = alloca i16, align 2
  %9 = alloca ptr, align 8
  %10 = alloca i64, align 8
  %11 = alloca %"class.duckdb::Serializer::List", align 8
  %12 = alloca i64, align 8
  %13 = getelementptr inbounds nuw %class.anon.116, ptr %6, i32 0, i32 0
  store ptr %4, ptr %13, align 8
  store ptr %0, ptr %7, align 8, !tbaa !78
  store i16 %1, ptr %8, align 2, !tbaa !82
  store ptr %2, ptr %9, align 8, !tbaa !74
  store i64 %3, ptr %10, align 8, !tbaa !40
  %14 = load ptr, ptr %7, align 8
  %15 = load i16, ptr %8, align 2, !tbaa !82
  %16 = load ptr, ptr %9, align 8, !tbaa !74
  %17 = load ptr, ptr %14, align 8, !tbaa !86
  %18 = getelementptr inbounds ptr, ptr %17, i64 2
  %19 = load ptr, ptr %18, align 8
  call void %19(ptr noundef nonnull align 8 dereferenceable(680) %14, i16 noundef zeroext %15, ptr noundef %16)
  %20 = load i64, ptr %10, align 8, !tbaa !40
  %21 = load ptr, ptr %14, align 8, !tbaa !86
  %22 = getelementptr inbounds ptr, ptr %21, i64 8
  %23 = load ptr, ptr %22, align 8
  call void %23(ptr noundef nonnull align 8 dereferenceable(680) %14, i64 noundef %20)
  call void @llvm.lifetime.start.p0(i64 8, ptr %11) #3
  call void @_ZN6duckdb10Serializer4ListC2ERS0_(ptr noundef nonnull align 8 dereferenceable(8) %11, ptr noundef nonnull align 8 dereferenceable(680) %14)
  call void @llvm.lifetime.start.p0(i64 8, ptr %12) #3
  store i64 0, ptr %12, align 8, !tbaa !40
  br label %24

24:                                               ; preds = %31, %5
  %25 = load i64, ptr %12, align 8, !tbaa !40
  %26 = load i64, ptr %10, align 8, !tbaa !40
  %27 = icmp ult i64 %25, %26
  br i1 %27, label %29, label %28

28:                                               ; preds = %24
  call void @llvm.lifetime.end.p0(i64 8, ptr %12) #3
  br label %34

29:                                               ; preds = %24
  %30 = load i64, ptr %12, align 8, !tbaa !40
  call void @"_ZZN6duckdb11StructStats9SerializeERKNS_14BaseStatisticsERNS_10SerializerEENK3$_0clERNS4_4ListEm"(ptr noundef nonnull align 8 dereferenceable(8) %6, ptr noundef nonnull align 8 dereferenceable(8) %11, i64 noundef %30)
  br label %31

31:                                               ; preds = %29
  %32 = load i64, ptr %12, align 8, !tbaa !40
  %33 = add i64 %32, 1
  store i64 %33, ptr %12, align 8, !tbaa !40
  br label %24, !llvm.loop !324

34:                                               ; preds = %28
  %35 = load ptr, ptr %14, align 8, !tbaa !86
  %36 = getelementptr inbounds ptr, ptr %35, i64 9
  %37 = load ptr, ptr %36, align 8
  call void %37(ptr noundef nonnull align 8 dereferenceable(680) %14)
  %38 = load ptr, ptr %14, align 8, !tbaa !86
  %39 = getelementptr inbounds ptr, ptr %38, i64 3
  %40 = load ptr, ptr %39, align 8
  call void %40(ptr noundef nonnull align 8 dereferenceable(680) %14)
  call void @llvm.lifetime.end.p0(i64 8, ptr %11) #3
  ret void
}

; Function Attrs: mustprogress nounwind uwtable
define linkonce_odr noundef nonnull align 8 dereferenceable(24) ptr @_ZNK6duckdb14BaseStatistics7GetTypeEv(ptr noundef nonnull align 8 dereferenceable(88) %0) #6 comdat align 2 {
  %2 = alloca ptr, align 8
  store ptr %0, ptr %2, align 8, !tbaa !3
  %3 = load ptr, ptr %2, align 8
  %4 = getelementptr inbounds nuw %"class.duckdb::BaseStatistics", ptr %3, i32 0, i32 0
  ret ptr %4
}

; Function Attrs: mustprogress uwtable
define void @_ZN6duckdb11StructStats9SerializeERKNS_14BaseStatisticsERNS_10SerializerE(ptr noundef nonnull align 8 dereferenceable(88) %0, ptr noundef nonnull align 8 dereferenceable(680) %1) #4 align 2 {
  %3 = alloca ptr, align 8
  %4 = alloca ptr, align 8
  %5 = alloca ptr, align 8
  %6 = alloca i64, align 8
  %7 = alloca %class.anon.116, align 8
  store ptr %0, ptr %3, align 8, !tbaa !3
  store ptr %1, ptr %4, align 8, !tbaa !78
  call void @llvm.lifetime.start.p0(i64 8, ptr %5) #3
  %8 = load ptr, ptr %3, align 8, !tbaa !3
  %9 = call noundef ptr @_ZN6duckdb11StructStats13GetChildStatsERKNS_14BaseStatisticsE(ptr noundef nonnull align 8 dereferenceable(88) %8)
  store ptr %9, ptr %5, align 8, !tbaa !3
  call void @llvm.lifetime.start.p0(i64 8, ptr %6) #3
  %10 = load ptr, ptr %3, align 8, !tbaa !3
  %11 = call noundef nonnull align 8 dereferenceable(24) ptr @_ZNK6duckdb14BaseStatistics7GetTypeEv(ptr noundef nonnull align 8 dereferenceable(88) %10)
  %12 = call noundef i64 @_ZN6duckdb10StructType13GetChildCountERKNS_11LogicalTypeE(ptr noundef nonnull align 8 dereferenceable(24) %11)
  store i64 %12, ptr %6, align 8, !tbaa !40
  %13 = load ptr, ptr %4, align 8, !tbaa !78
  %14 = load i64, ptr %6, align 8, !tbaa !40
  %15 = getelementptr inbounds nuw %class.anon.116, ptr %7, i32 0, i32 0
  store ptr %5, ptr %15, align 8, !tbaa !34
  %16 = getelementptr inbounds nuw %class.anon.116, ptr %7, i32 0, i32 0
  %17 = load ptr, ptr %16, align 8
  call void @"_ZN6duckdb10Serializer9WriteListIZNS_11StructStats9SerializeERKNS_14BaseStatisticsERS0_E3$_0EEvtPKcmT_"(ptr noundef nonnull align 8 dereferenceable(680) %13, i16 noundef zeroext 200, ptr noundef @.str.18, i64 noundef %14, ptr %17)
  call void @llvm.lifetime.end.p0(i64 8, ptr %6) #3
  call void @llvm.lifetime.end.p0(i64 8, ptr %5) #3
  ret void
}