; Function Attrs: mustprogress uwtable
define void @_ZN6duckdb11StructStats9SerializeERKNS_14BaseStatisticsERNS_10SerializerE(ptr noundef nonnull align 8 dereferenceable(88) %0, ptr noundef nonnull align 8 dereferenceable(680) %1) local_unnamed_addr #3 align 2 {
  %3 = tail call noundef ptr @_ZN6duckdb11StructStats13GetChildStatsERKNS_14BaseStatisticsE(ptr noundef nonnull align 8 dereferenceable(88) %0)
  %4 = tail call noundef i64 @_ZN6duckdb10StructType13GetChildCountERKNS_11LogicalTypeE(ptr noundef nonnull align 8 dereferenceable(24) %0)
  %5 = load ptr, ptr %1, align 8, !tbaa !38
  %6 = getelementptr inbounds nuw i8, ptr %5, i64 16
  %7 = load ptr, ptr %6, align 8
  tail call void %7(ptr noundef nonnull align 8 dereferenceable(680) %1, i16 noundef zeroext 200, ptr noundef nonnull @.str.18)
  %8 = load ptr, ptr %1, align 8, !tbaa !38
  %9 = getelementptr inbounds nuw i8, ptr %8, i64 64
  %10 = load ptr, ptr %9, align 8
  tail call void %10(ptr noundef nonnull align 8 dereferenceable(680) %1, i64 noundef %4)
  %.not.i = icmp eq i64 %4, 0
  br i1 %.not.i, label %"_ZN6duckdb10Serializer9WriteListIZNS_11StructStats9SerializeERKNS_14BaseStatisticsERS0_E3$_0EEvtPKcmT_.exit", label %.lr.ph.i

.lr.ph.i:                                         ; preds = %2, %.lr.ph.i
  %.02.i = phi i64 [ %18, %.lr.ph.i ], [ 0, %2 ]
  %11 = getelementptr inbounds nuw %"class.duckdb::BaseStatistics", ptr %3, i64 %.02.i
  %12 = load ptr, ptr %1, align 8, !tbaa !38
  %13 = getelementptr inbounds nuw i8, ptr %12, i64 48
  %14 = load ptr, ptr %13, align 8
  tail call void %14(ptr noundef nonnull align 8 dereferenceable(680) %1)
  tail call void @_ZNK6duckdb14BaseStatistics9SerializeERNS_10SerializerE(ptr noundef nonnull align 8 dereferenceable(88) %11, ptr noundef nonnull align 8 dereferenceable(680) %1)
  %15 = load ptr, ptr %1, align 8, !tbaa !38
  %16 = getelementptr inbounds nuw i8, ptr %15, i64 56
  %17 = load ptr, ptr %16, align 8
  tail call void %17(ptr noundef nonnull align 8 dereferenceable(680) %1)
  %18 = add nuw i64 %.02.i, 1
  %exitcond.not.i = icmp eq i64 %18, %4
  br i1 %exitcond.not.i, label %"_ZN6duckdb10Serializer9WriteListIZNS_11StructStats9SerializeERKNS_14BaseStatisticsERS0_E3$_0EEvtPKcmT_.exit", label %.lr.ph.i, !llvm.loop !91

"_ZN6duckdb10Serializer9WriteListIZNS_11StructStats9SerializeERKNS_14BaseStatisticsERS0_E3$_0EEvtPKcmT_.exit": ; preds = %.lr.ph.i, %2
  %19 = load ptr, ptr %1, align 8, !tbaa !38
  %20 = getelementptr inbounds nuw i8, ptr %19, i64 72
  %21 = load ptr, ptr %20, align 8
  tail call void %21(ptr noundef nonnull align 8 dereferenceable(680) %1)
  %22 = load ptr, ptr %1, align 8, !tbaa !38
  %23 = getelementptr inbounds nuw i8, ptr %22, i64 24
  %24 = load ptr, ptr %23, align 8
  tail call void %24(ptr noundef nonnull align 8 dereferenceable(680) %1)
  ret void
}